target datalayout = "e-m:e-p270:32:32-p271:32:32-p272:64:64-i64:64-i128:128-f80:128-n8:16:32:64-S128"
target triple = "x86_64-unknown-linux-gnu"

%"class.grpc_core::ConnectedSubchannel" = type { %"class.grpc_core::RefCounted", ptr, %"class.grpc_core::ChannelArgs", %"class.grpc_core::RefCountedPtr" }
%"class.grpc_core::RefCounted" = type { %"class.grpc_core::PolymorphicRefCount", %"class.grpc_core::RefCount" }
%"class.grpc_core::PolymorphicRefCount" = type { ptr }
%"class.grpc_core::RefCount" = type { %"struct.std::atomic.0" }
%"struct.std::atomic.0" = type { %"struct.std::__atomic_base.1" }
%"struct.std::__atomic_base.1" = type { i64 }
%"class.grpc_core::ChannelArgs" = type { %"class.grpc_core::AVL" }
%"class.grpc_core::AVL" = type { %"class.grpc_core::RefCountedPtr.2" }
%"class.grpc_core::RefCountedPtr.2" = type { ptr }
%"class.grpc_core::RefCountedPtr" = type { ptr }

@_ZTVN9grpc_core19ConnectedSubchannelE = unnamed_addr constant { [4 x ptr] } { [4 x ptr] [ptr null, ptr @_ZTIN9grpc_core19ConnectedSubchannelE, ptr @_ZN9grpc_core19ConnectedSubchannelD1Ev, ptr @_ZN9grpc_core19ConnectedSubchannelD0Ev] }, align 8
@_ZTVN9grpc_core19PolymorphicRefCountE = linkonce_odr unnamed_addr constant { [4 x ptr] } { [4 x ptr] [ptr null, ptr @_ZTIN9grpc_core19PolymorphicRefCountE, ptr @_ZN9grpc_core19PolymorphicRefCountD2Ev, ptr @_ZN9grpc_core19PolymorphicRefCountD0Ev] }, comdat, align 8

; Function Attrs: mustprogress nounwind uwtable
define linkonce_odr void @_ZNSt13__atomic_baseIlEC2El(ptr noundef nonnull align 8 dereferenceable(8) %this, i64 noundef %__i) unnamed_addr #5 comdat align 2 {
entry:
  %this.addr = alloca ptr, align 8
  %__i.addr = alloca i64, align 8
  store ptr %this, ptr %this.addr, align 8
  store i64 %__i, ptr %__i.addr, align 8
  %this1 = load ptr, ptr %this.addr, align 8
  %_M_i = getelementptr inbounds %"struct.std::__atomic_base.1", ptr %this1, i32 0, i32 0
  %0 = load i64, ptr %__i.addr, align 8
  store i64 %0, ptr %_M_i, align 8
  ret void
}

; Function Attrs: mustprogress nounwind uwtable
define linkonce_odr void @_ZNSt6atomicIlEC2El(ptr noundef nonnull align 8 dereferenceable(8) %this, i64 noundef %__i) unnamed_addr #5 comdat align 2 {
entry:
  %this.addr = alloca ptr, align 8
  %__i.addr = alloca i64, align 8
  store ptr %this, ptr %this.addr, align 8
  store i64 %__i, ptr %__i.addr, align 8
  %this1 = load ptr, ptr %this.addr, align 8
  %0 = load i64, ptr %__i.addr, align 8
  call void @_ZNSt13__atomic_baseIlEC2El(ptr noundef nonnull align 8 dereferenceable(8) %this1, i64 noundef %0) #3
  ret void
}

; Function Attrs: mustprogress nounwind uwtable
define linkonce_odr void @_ZN9grpc_core19PolymorphicRefCountD2Ev(ptr noundef nonnull align 8 dereferenceable(8) %this) unnamed_addr #5 comdat align 2 {
entry:
  %this.addr = alloca ptr, align 8
  store ptr %this, ptr %this.addr, align 8
  ret void
}

; Function Attrs: mustprogress nounwind uwtable
define linkonce_odr void @_ZN9grpc_core8RefCountC2ElPKc(ptr noundef nonnull align 8 dereferenceable(8) %this, i64 noundef %init, ptr noundef %0) unnamed_addr #5 comdat align 2 {
entry:
  %this.addr = alloca ptr, align 8
  %init.addr = alloca i64, align 8
  %.addr = alloca ptr, align 8
  store ptr %this, ptr %this.addr, align 8
  store i64 %init, ptr %init.addr, align 8
  store ptr %0, ptr %.addr, align 8
  %this1 = load ptr, ptr %this.addr, align 8
  %value_ = getelementptr inbounds %"class.grpc_core::RefCount", ptr %this1, i32 0, i32 0
  %1 = load i64, ptr %init.addr, align 8
  call void @_ZNSt6atomicIlEC2El(ptr noundef nonnull align 8 dereferenceable(8) %value_, i64 noundef %1) #3
  ret void
}

; Function Attrs: mustprogress nounwind uwtable
define linkonce_odr void @_ZN9grpc_core19PolymorphicRefCountC2Ev(ptr noundef nonnull align 8 dereferenceable(8) %this) unnamed_addr #5 comdat align 2 {
entry:
  %this.addr = alloca ptr, align 8
  store ptr %this, ptr %this.addr, align 8
  %this1 = load ptr, ptr %this.addr, align 8
  store ptr getelementptr inbounds ({ [4 x ptr] }, ptr @_ZTVN9grpc_core19PolymorphicRefCountE, i32 0, i32 0, i32 2), ptr %this1, align 8
  ret void
}

; Function Attrs: mustprogress nounwind uwtable
define linkonce_odr void @_ZN9grpc_core10RefCountedINS_19ConnectedSubchannelENS_19PolymorphicRefCountENS_11UnrefDeleteEED2Ev(ptr noundef nonnull align 8 dereferenceable(16) %this) unnamed_addr #5 comdat align 2 {
entry:
  %this.addr = alloca ptr, align 8
  store ptr %this, ptr %this.addr, align 8
  %this1 = load ptr, ptr %this.addr, align 8
  call void @_ZN9grpc_core19PolymorphicRefCountD2Ev(ptr noundef nonnull align 8 dereferenceable(8) %this1) #3
  ret void
}

; Function Attrs: mustprogress nounwind uwtable
define linkonce_odr void @_ZN9grpc_core13RefCountedPtrINS_8channelz14SubchannelNodeEEC2EOS3_(ptr noundef nonnull align 8 dereferenceable(8) %this, ptr noundef nonnull align 8 dereferenceable(8) %other) unnamed_addr #5 comdat align 2 {
entry:
  %this.addr = alloca ptr, align 8
  %other.addr = alloca ptr, align 8
  store ptr %this, ptr %this.addr, align 8
  store ptr %other, ptr %other.addr, align 8
  %this1 = load ptr, ptr %this.addr, align 8
  %value_ = getelementptr inbounds %"class.grpc_core::RefCountedPtr", ptr %this1, i32 0, i32 0
  store ptr null, ptr %value_, align 8
  %0 = load ptr, ptr %other.addr, align 8
  %value_2 = getelementptr inbounds %"class.grpc_core::RefCountedPtr", ptr %0, i32 0, i32 0
  %1 = load ptr, ptr %value_2, align 8
  %value_3 = getelementptr inbounds %"class.grpc_core::RefCountedPtr", ptr %this1, i32 0, i32 0
  store ptr %1, ptr %value_3, align 8
  %2 = load ptr, ptr %other.addr, align 8
  %value_4 = getelementptr inbounds %"class.grpc_core::RefCountedPtr", ptr %2, i32 0, i32 0
  store ptr null, ptr %value_4, align 8
  ret void
}

; Function Attrs: mustprogress uwtable
define linkonce_odr void @_ZN9grpc_core10RefCountedINS_19ConnectedSubchannelENS_19PolymorphicRefCountENS_11UnrefDeleteEEC2EPKcl(ptr noundef nonnull align 8 dereferenceable(16) %this, ptr noundef %trace, i64 noundef %initial_refcount) unnamed_addr #4 comdat align 2 personality ptr @__gxx_personality_v0 {
entry:
  %this.addr = alloca ptr, align 8
  %trace.addr = alloca ptr, align 8
  %initial_refcount.addr = alloca i64, align 8
  %exn.slot = alloca ptr, align 8
  %ehselector.slot = alloca i32, align 4
  store ptr %this, ptr %this.addr, align 8
  store ptr %trace, ptr %trace.addr, align 8
  store i64 %initial_refcount, ptr %initial_refcount.addr, align 8
  %this1 = load ptr, ptr %this.addr, align 8
  call void @_ZN9grpc_core19PolymorphicRefCountC2Ev(ptr noundef nonnull align 8 dereferenceable(8) %this1) #3
  store ptr getelementptr inbounds ({ [4 x ptr] }, ptr @_ZTVN9grpc_core10RefCountedINS_19ConnectedSubchannelENS_19PolymorphicRefCountENS_11UnrefDeleteEEE, i32 0, i32 0, i32 2), ptr %this1, align 8
  %refs_ = getelementptr inbounds %"class.grpc_core::RefCounted", ptr %this1, i32 0, i32 1
  %0 = load i64, ptr %initial_refcount.addr, align 8
  %1 = load ptr, ptr %trace.addr, align 8
  invoke void @_ZN9grpc_core8RefCountC2ElPKc(ptr noundef nonnull align 8 dereferenceable(8) %refs_, i64 noundef %0, ptr noundef %1)
          to label %invoke.cont unwind label %lpad

invoke.cont:                                      ; preds = %entry
  ret void

lpad:                                             ; preds = %entry
  %2 = landingpad { ptr, i32 }
          cleanup
  %3 = extractvalue { ptr, i32 } %2, 0
  store ptr %3, ptr %exn.slot, align 8
  %4 = extractvalue { ptr, i32 } %2, 1
  store i32 %4, ptr %ehselector.slot, align 4
  call void @_ZN9grpc_core19PolymorphicRefCountD2Ev(ptr noundef nonnull align 8 dereferenceable(8) %this1) #3
  br label %eh.resume

eh.resume:                                        ; preds = %lpad
  %exn = load ptr, ptr %exn.slot, align 8
  %sel = load i32, ptr %ehselector.slot, align 4
  %lpad.val = insertvalue { ptr, i32 } poison, ptr %exn, 0
  %lpad.val2 = insertvalue { ptr, i32 } %lpad.val, i32 %sel, 1
  resume { ptr, i32 } %lpad.val2
}

; Function Attrs: mustprogress uwtable
define void @_ZN9grpc_core19ConnectedSubchannelC2EP18grpc_channel_stackRKNS_11ChannelArgsENS_13RefCountedPtrINS_8channelz14SubchannelNodeEEE(ptr noundef nonnull align 8 dereferenceable(40) %this, ptr noundef %channel_stack, ptr noundef nonnull align 8 dereferenceable(8) %args, ptr noundef %channelz_subchannel) unnamed_addr #4 align 2 personality ptr @__gxx_personality_v0 {
entry:
  %this.addr = alloca ptr, align 8
  %channel_stack.addr = alloca ptr, align 8
  %args.addr = alloca ptr, align 8
  %channelz_subchannel.indirect_addr = alloca ptr, align 8
  %exn.slot = alloca ptr, align 8
  %ehselector.slot = alloca i32, align 4
  store ptr %this, ptr %this.addr, align 8
  store ptr %channel_stack, ptr %channel_stack.addr, align 8
  store ptr %args, ptr %args.addr, align 8
  store ptr %channelz_subchannel, ptr %channelz_subchannel.indirect_addr, align 8
  %this1 = load ptr, ptr %this.addr, align 8
  call void @_ZN9grpc_core10RefCountedINS_19ConnectedSubchannelENS_19PolymorphicRefCountENS_11UnrefDeleteEEC2EPKcl(ptr noundef nonnull align 8 dereferenceable(16) %this1, ptr noundef null, i64 noundef 1)
  store ptr getelementptr inbounds ({ [4 x ptr] }, ptr @_ZTVN9grpc_core19ConnectedSubchannelE, i32 0, i32 0, i32 2), ptr %this1, align 8
  %channel_stack_ = getelementptr inbounds %"class.grpc_core::ConnectedSubchannel", ptr %this1, i32 0, i32 1
  %0 = load ptr, ptr %channel_stack.addr, align 8
  store ptr %0, ptr %channel_stack_, align 8
  %args_ = getelementptr inbounds %"class.grpc_core::ConnectedSubchannel", ptr %this1, i32 0, i32 2
  %1 = load ptr, ptr %args.addr, align 8
  invoke void @_ZN9grpc_core11ChannelArgsC1ERKS0_(ptr noundef nonnull align 8 dereferenceable(8) %args_, ptr noundef nonnull align 8 dereferenceable(8) %1)
          to label %invoke.cont unwind label %lpad

invoke.cont:                                      ; preds = %entry
  %channelz_subchannel_ = getelementptr inbounds %"class.grpc_core::ConnectedSubchannel", ptr %this1, i32 0, i32 3
  call void @_ZN9grpc_core13RefCountedPtrINS_8channelz14SubchannelNodeEEC2EOS3_(ptr noundef nonnull align 8 dereferenceable(8) %channelz_subchannel_, ptr noundef nonnull align 8 dereferenceable(8) %channelz_subchannel) #3
  ret void

lpad:                                             ; preds = %entry
  %2 = landingpad { ptr, i32 }
          cleanup
  %3 = extractvalue { ptr, i32 } %2, 0
  store ptr %3, ptr %exn.slot, align 8
  %4 = extractvalue { ptr, i32 } %2, 1
  store i32 %4, ptr %ehselector.slot, align 4
  call void @_ZN9grpc_core10RefCountedINS_19ConnectedSubchannelENS_19PolymorphicRefCountENS_11UnrefDeleteEED2Ev(ptr noundef nonnull align 8 dereferenceable(16) %this1) #3
  br label %eh.resume

eh.resume:                                        ; preds = %lpad
  %exn = load ptr, ptr %exn.slot, align 8
  %sel = load i32, ptr %ehselector.slot, align 4
  %lpad.val = insertvalue { ptr, i32 } poison, ptr %exn, 0
  %lpad.val2 = insertvalue { ptr, i32 } %lpad.val, i32 %sel, 1
  resume { ptr, i32 } %lpad.val2
}