; Function Attrs: mustprogress uwtable
define void @_ZN9grpc_core19ConnectedSubchannelC2EP18grpc_channel_stackRKNS_11ChannelArgsENS_13RefCountedPtrINS_8channelz14SubchannelNodeEEE(ptr noundef nonnull align 8 dereferenceable(40) %this, ptr noundef %channel_stack, ptr noundef nonnull align 8 dereferenceable(8) %args, ptr nocapture noundef %channelz_subchannel) unnamed_addr #3 align 2 personality ptr @__gxx_personality_v0 {
entry:
  %refs_.i = getelementptr inbounds i8, ptr %this, i64 8
  store i64 1, ptr %refs_.i, align 8
  store ptr getelementptr inbounds ({ [4 x ptr] }, ptr @_ZTVN9grpc_core19ConnectedSubchannelE, i64 0, i32 0, i64 2), ptr %this, align 8
  %channel_stack_ = getelementptr inbounds i8, ptr %this, i64 16
  store ptr %channel_stack, ptr %channel_stack_, align 8
  %args_ = getelementptr inbounds i8, ptr %this, i64 24
  tail call void @_ZN9grpc_core11ChannelArgsC1ERKS0_(ptr noundef nonnull align 8 dereferenceable(8) %args_, ptr noundef nonnull align 8 dereferenceable(8) %args)
  %channelz_subchannel_ = getelementptr inbounds i8, ptr %this, i64 32
  store ptr null, ptr %channelz_subchannel_, align 8
  %0 = load ptr, ptr %channelz_subchannel, align 8
  store ptr %0, ptr %channelz_subchannel_, align 8
  store ptr null, ptr %channelz_subchannel, align 8
  ret void
}